; Function Attrs: nounwind uwtable
define zeroext range(i8 0, 2) i8 @l_Array_anyMUnsafe_any___at_Lean_Elab_Term_expandCDot_x3f_go___spec__4(ptr noundef readonly captures(none) %0, ptr noundef readonly captures(none) %1, i64 noundef %2, i64 noundef %3) local_unnamed_addr #0 {
  %.not48 = icmp eq i64 %2, %3
  br i1 %.not48, label %lean_dec.exit._crit_edge, label %.lr.ph

.lr.ph:                                           ; preds = %4
  %5 = getelementptr inbounds nuw i8, ptr %1, i64 24
  %6 = getelementptr i8, ptr %0, i64 8
  br label %9

7:                                                ; preds = %lean_dec.exit
  %8 = add i64 %.02249, 1
  %.not = icmp eq i64 %8, %3
  br i1 %.not, label %lean_dec.exit._crit_edge, label %9

9:                                                ; preds = %.lr.ph, %7
  %.02249 = phi i64 [ %2, %.lr.ph ], [ %8, %7 ]
  %10 = getelementptr inbounds nuw [0 x ptr], ptr %5, i64 0, i64 %.02249
  %11 = load ptr, ptr %10, align 8, !tbaa !10
  %12 = ptrtoint ptr %11 to i64
  %13 = and i64 %12, 1
  %.not.i37 = icmp eq i64 %13, 0
  br i1 %.not.i37, label %14, label %lean_array_uget.exit

14:                                               ; preds = %9
  %.val.i.i = load i32, ptr %11, align 4, !tbaa !4
  %15 = icmp sgt i32 %.val.i.i, 0
  br i1 %15, label %16, label %18, !prof !9

16:                                               ; preds = %14
  %17 = add nuw i32 %.val.i.i, 1
  store i32 %17, ptr %11, align 4, !tbaa !4
  br label %lean_array_uget.exit

18:                                               ; preds = %14
  %.not.i.i = icmp eq i32 %.val.i.i, 0
  br i1 %.not.i.i, label %lean_array_uget.exit, label %19

19:                                               ; preds = %18
  tail call void @lean_inc_ref_cold(ptr noundef nonnull %11) #6
  br label %lean_array_uget.exit

lean_array_uget.exit:                             ; preds = %9, %16, %18, %19
  %20 = getelementptr inbounds nuw i8, ptr %11, i64 16
  %21 = load ptr, ptr %20, align 8, !tbaa !10
  %22 = ptrtoint ptr %21 to i64
  %23 = and i64 %22, 1
  %.not45 = icmp eq i64 %23, 0
  br i1 %.not45, label %24, label %lean_inc.exit

24:                                               ; preds = %lean_array_uget.exit
  %.val.i = load i32, ptr %21, align 4, !tbaa !4
  %25 = icmp sgt i32 %.val.i, 0
  br i1 %25, label %26, label %28, !prof !9

26:                                               ; preds = %24
  %27 = add nuw i32 %.val.i, 1
  store i32 %27, ptr %21, align 4, !tbaa !4
  br label %lean_inc.exit

28:                                               ; preds = %24
  %.not.i38 = icmp eq i32 %.val.i, 0
  br i1 %.not.i38, label %lean_inc.exit, label %29

29:                                               ; preds = %28
  tail call void @lean_inc_ref_cold(ptr noundef nonnull %21) #6
  br label %lean_inc.exit

lean_inc.exit:                                    ; preds = %29, %28, %26, %lean_array_uget.exit
  br i1 %.not.i37, label %30, label %lean_dec.exit29

30:                                               ; preds = %lean_inc.exit
  %31 = load i32, ptr %11, align 4, !tbaa !4
  %32 = icmp sgt i32 %31, 1
  br i1 %32, label %33, label %35, !prof !9

33:                                               ; preds = %30
  %34 = add nsw i32 %31, -1
  store i32 %34, ptr %11, align 4, !tbaa !4
  br label %lean_dec.exit29

35:                                               ; preds = %30
  %.not.i = icmp eq i32 %31, 0
  br i1 %.not.i, label %lean_dec.exit29, label %36

36:                                               ; preds = %35
  tail call void @lean_dec_ref_cold(ptr noundef nonnull %11) #6
  br label %lean_dec.exit29

lean_dec.exit29:                                  ; preds = %36, %35, %33, %lean_inc.exit
  %37 = getelementptr i8, ptr %21, i64 8
  %.val36 = load i64, ptr %37, align 8, !tbaa !12
  br i1 %.not45, label %38, label %lean_dec.exit

38:                                               ; preds = %lean_dec.exit29
  %39 = load i32, ptr %21, align 4, !tbaa !4
  %40 = icmp sgt i32 %39, 1
  br i1 %40, label %41, label %43, !prof !9

41:                                               ; preds = %38
  %42 = add nsw i32 %39, -1
  store i32 %42, ptr %21, align 4, !tbaa !4
  br label %lean_dec.exit

43:                                               ; preds = %38
  %.not.i30 = icmp eq i32 %39, 0
  br i1 %.not.i30, label %lean_dec.exit, label %44

44:                                               ; preds = %43
  tail call void @lean_dec_ref_cold(ptr noundef nonnull %21) #6
  br label %lean_dec.exit

lean_dec.exit:                                    ; preds = %lean_dec.exit29, %41, %43, %44
  %.val = load i64, ptr %6, align 8, !tbaa !12
  %.unshifted = xor i64 %.val, %.val36
  %.mask = and i64 %.unshifted, 9223372036854775807
  %.not47 = icmp eq i64 %.mask, 0
  br i1 %.not47, label %7, label %lean_dec.exit._crit_edge

lean_dec.exit._crit_edge:                         ; preds = %7, %lean_dec.exit, %4
  %.2.ph = phi i8 [ 0, %4 ], [ 1, %lean_dec.exit ], [ 0, %7 ]
  ret i8 %.2.ph
}